; Function Attrs: nounwind uwtable
define internal ptr @_locale_nl_langinfo(ptr readnone captures(none) %0, ptr noundef %1) #0 {
  %3 = tail call i32 @PyLong_AsInt(ptr noundef %1) #8
  %4 = icmp eq i32 %3, -1
  br i1 %4, label %5, label %.sink.split

5:                                                ; preds = %2
  %6 = tail call ptr @PyErr_Occurred() #8
  %.not = icmp eq ptr %6, null
  br i1 %.not, label %.sink.split, label %8

.sink.split:                                      ; preds = %5, %2
  %.sink = phi i32 [ %3, %2 ], [ -1, %5 ]
  %7 = tail call fastcc ptr @_locale_nl_langinfo_impl(i32 noundef %.sink)
  br label %8

8:                                                ; preds = %.sink.split, %5
  %.0 = phi ptr [ null, %5 ], [ %7, %.sink.split ]
  ret ptr %.0
}